; ModuleID = '14/92.c'
source_filename = "14/92.c"
target datalayout = "e-m:e-p270:32:32-p271:32:32-p272:64:64-i64:64-f80:128-n8:16:32:64-S128"
target triple = "x86_64-pc-linux-gnu"

%struct.student = type { i32, i32, i32 }

@.str = private unnamed_addr constant [3 x i8] c"%d\00", align 1
@.str.1 = private unnamed_addr constant [9 x i8] c"%d %d %d\00", align 1
@.str.2 = private unnamed_addr constant [7 x i8] c"%d %d\0A\00", align 1
@.str.3 = private unnamed_addr constant [6 x i8] c"%d %d\00", align 1

; Function Attrs: noinline nounwind uwtable
define dso_local void @main() #0 {
  %1 = alloca i32, align 4
  %2 = alloca i32, align 4
  %3 = alloca i32, align 4
  %4 = alloca i32, align 4
  %5 = alloca i32, align 4
  %6 = alloca i32, align 4
  %7 = alloca [100000 x i32], align 16
  %8 = alloca %struct.student, align 4
  %9 = call i32 (i8*, ...) @__isoc99_scanf(i8* getelementptr inbounds ([3 x i8], [3 x i8]* @.str, i64 0, i64 0), i32* %1)
  store i32 0, i32* %2, align 4
  br label %10

10:                                               ; preds = %27, %0
  %11 = load i32, i32* %2, align 4
  %12 = load i32, i32* %1, align 4
  %13 = icmp slt i32 %11, %12
  br i1 %13, label %14, label %30

14:                                               ; preds = %10
  %15 = getelementptr inbounds %struct.student, %struct.student* %8, i32 0, i32 0
  %16 = getelementptr inbounds %struct.student, %struct.student* %8, i32 0, i32 1
  %17 = getelementptr inbounds %struct.student, %struct.student* %8, i32 0, i32 2
  %18 = call i32 (i8*, ...) @__isoc99_scanf(i8* getelementptr inbounds ([9 x i8], [9 x i8]* @.str.1, i64 0, i64 0), i32* %15, i32* %16, i32* %17)
  %19 = getelementptr inbounds %struct.student, %struct.student* %8, i32 0, i32 1
  %20 = load i32, i32* %19, align 4
  %21 = getelementptr inbounds %struct.student, %struct.student* %8, i32 0, i32 2
  %22 = load i32, i32* %21, align 4
  %23 = add nsw i32 %20, %22
  %24 = load i32, i32* %2, align 4
  %25 = sext i32 %24 to i64
  %26 = getelementptr inbounds [100000 x i32], [100000 x i32]* %7, i64 0, i64 %25
  store i32 %23, i32* %26, align 4
  br label %27

27:                                               ; preds = %14
  %28 = load i32, i32* %2, align 4
  %29 = add nsw i32 %28, 1
  store i32 %29, i32* %2, align 4
  br label %10

30:                                               ; preds = %10
  %31 = getelementptr inbounds [100000 x i32], [100000 x i32]* %7, i64 0, i64 0
  %32 = load i32, i32* %31, align 16
  store i32 %32, i32* %4, align 4
  store i32 1, i32* %2, align 4
  br label %33

33:                                               ; preds = %51, %30
  %34 = load i32, i32* %2, align 4
  %35 = load i32, i32* %1, align 4
  %36 = icmp slt i32 %34, %35
  br i1 %36, label %37, label %54

37:                                               ; preds = %33
  %38 = load i32, i32* %2, align 4
  %39 = sext i32 %38 to i64
  %40 = getelementptr inbounds [100000 x i32], [100000 x i32]* %7, i64 0, i64 %39
  %41 = load i32, i32* %40, align 4
  %42 = load i32, i32* %4, align 4
  %43 = icmp sgt i32 %41, %42
  br i1 %43, label %44, label %50

44:                                               ; preds = %37
  %45 = load i32, i32* %2, align 4
  %46 = sext i32 %45 to i64
  %47 = getelementptr inbounds [100000 x i32], [100000 x i32]* %7, i64 0, i64 %46
  %48 = load i32, i32* %47, align 4
  store i32 %48, i32* %4, align 4
  %49 = load i32, i32* %2, align 4
  store i32 %49, i32* %3, align 4
  br label %50

50:                                               ; preds = %44, %37
  br label %51

51:                                               ; preds = %50
  %52 = load i32, i32* %2, align 4
  %53 = add nsw i32 %52, 1
  store i32 %53, i32* %2, align 4
  br label %33

54:                                               ; preds = %33
  %55 = load i32, i32* %3, align 4
  %56 = add nsw i32 %55, 1
  %57 = load i32, i32* %3, align 4
  %58 = sext i32 %57 to i64
  %59 = getelementptr inbounds [100000 x i32], [100000 x i32]* %7, i64 0, i64 %58
  %60 = load i32, i32* %59, align 4
  %61 = call i32 (i8*, ...) @printf(i8* getelementptr inbounds ([7 x i8], [7 x i8]* @.str.2, i64 0, i64 0), i32 %56, i32 %60)
  %62 = load i32, i32* %3, align 4
  %63 = sext i32 %62 to i64
  %64 = getelementptr inbounds [100000 x i32], [100000 x i32]* %7, i64 0, i64 %63
  store i32 0, i32* %64, align 4
  %65 = getelementptr inbounds [100000 x i32], [100000 x i32]* %7, i64 0, i64 0
  %66 = load i32, i32* %65, align 16
  store i32 %66, i32* %4, align 4
  store i32 1, i32* %2, align 4
  br label %67

67:                                               ; preds = %85, %54
  %68 = load i32, i32* %2, align 4
  %69 = load i32, i32* %1, align 4
  %70 = icmp slt i32 %68, %69
  br i1 %70, label %71, label %88

71:                                               ; preds = %67
  %72 = load i32, i32* %2, align 4
  %73 = sext i32 %72 to i64
  %74 = getelementptr inbounds [100000 x i32], [100000 x i32]* %7, i64 0, i64 %73
  %75 = load i32, i32* %74, align 4
  %76 = load i32, i32* %4, align 4
  %77 = icmp sgt i32 %75, %76
  br i1 %77, label %78, label %84

78:                                               ; preds = %71
  %79 = load i32, i32* %2, align 4
  %80 = sext i32 %79 to i64
  %81 = getelementptr inbounds [100000 x i32], [100000 x i32]* %7, i64 0, i64 %80
  %82 = load i32, i32* %81, align 4
  store i32 %82, i32* %4, align 4
  %83 = load i32, i32* %2, align 4
  store i32 %83, i32* %5, align 4
  br label %84

84:                                               ; preds = %78, %71
  br label %85

85:                                               ; preds = %84
  %86 = load i32, i32* %2, align 4
  %87 = add nsw i32 %86, 1
  store i32 %87, i32* %2, align 4
  br label %67

88:                                               ; preds = %67
  %89 = load i32, i32* %5, align 4
  %90 = add nsw i32 %89, 1
  %91 = load i32, i32* %5, align 4
  %92 = sext i32 %91 to i64
  %93 = getelementptr inbounds [100000 x i32], [100000 x i32]* %7, i64 0, i64 %92
  %94 = load i32, i32* %93, align 4
  %95 = call i32 (i8*, ...) @printf(i8* getelementptr inbounds ([7 x i8], [7 x i8]* @.str.2, i64 0, i64 0), i32 %90, i32 %94)
  %96 = load i32, i32* %5, align 4
  %97 = sext i32 %96 to i64
  %98 = getelementptr inbounds [100000 x i32], [100000 x i32]* %7, i64 0, i64 %97
  store i32 0, i32* %98, align 4
  %99 = getelementptr inbounds [100000 x i32], [100000 x i32]* %7, i64 0, i64 0
  %100 = load i32, i32* %99, align 16
  store i32 %100, i32* %4, align 4
  store i32 1, i32* %2, align 4
  br label %101

101:                                              ; preds = %119, %88
  %102 = load i32, i32* %2, align 4
  %103 = load i32, i32* %1, align 4
  %104 = icmp slt i32 %102, %103
  br i1 %104, label %105, label %122

105:                                              ; preds = %101
  %106 = load i32, i32* %2, align 4
  %107 = sext i32 %106 to i64
  %108 = getelementptr inbounds [100000 x i32], [100000 x i32]* %7, i64 0, i64 %107
  %109 = load i32, i32* %108, align 4
  %110 = load i32, i32* %4, align 4
  %111 = icmp sgt i32 %109, %110
  br i1 %111, label %112, label %118

112:                                              ; preds = %105
  %113 = load i32, i32* %2, align 4
  %114 = sext i32 %113 to i64
  %115 = getelementptr inbounds [100000 x i32], [100000 x i32]* %7, i64 0, i64 %114
  %116 = load i32, i32* %115, align 4
  store i32 %116, i32* %4, align 4
  %117 = load i32, i32* %2, align 4
  store i32 %117, i32* %6, align 4
  br label %118

118:                                              ; preds = %112, %105
  br label %119

119:                                              ; preds = %118
  %120 = load i32, i32* %2, align 4
  %121 = add nsw i32 %120, 1
  store i32 %121, i32* %2, align 4
  br label %101

122:                                              ; preds = %101
  %123 = load i32, i32* %6, align 4
  %124 = add nsw i32 %123, 1
  %125 = load i32, i32* %6, align 4
  %126 = sext i32 %125 to i64
  %127 = getelementptr inbounds [100000 x i32], [100000 x i32]* %7, i64 0, i64 %126
  %128 = load i32, i32* %127, align 4
  %129 = call i32 (i8*, ...) @printf(i8* getelementptr inbounds ([6 x i8], [6 x i8]* @.str.3, i64 0, i64 0), i32 %124, i32 %128)
  ret void
}

declare dso_local i32 @__isoc99_scanf(i8*, ...) #1

declare dso_local i32 @printf(i8*, ...) #1


!llvm.module.flags = !{!0}
!llvm.ident = !{!1}

!0 = !{i32 1, !"wchar_size", i32 4}
!1 = !{!"clang version 10.0.0-4ubuntu1 "}
